target datalayout = "e-m:e-p270:32:32-p271:32:32-p272:64:64-i64:64-i128:128-f80:128-n8:16:32:64-S128"
target triple = "x86_64-pc-linux-gnu"

%class.MemRegion = type { ptr, i64 }
%class.ShenandoahMarkingContext = type { %class.ShenandoahMarkBitMap, ptr, ptr, ptr, %struct.ShenandoahSharedFlag, ptr }
%class.ShenandoahMarkBitMap = type { i32, %class.MemRegion, ptr, i64 }
%struct.ShenandoahSharedFlag = type { [64 x i8], i8, [64 x i8] }
%class.ShenandoahHeapRegion = type { i64, ptr, ptr, ptr, double, i32, ptr, i64, i64, i64, i64, ptr }

; Function Attrs: mustprogress nounwind uwtable
define linkonce_odr hidden noundef i64 @_Z13pointer_deltaPVKvS0_m(ptr noundef %0, ptr noundef %1, i64 noundef %2) #1 comdat {
  %4 = alloca ptr, align 8
  %5 = alloca ptr, align 8
  %6 = alloca i64, align 8
  store ptr %0, ptr %4, align 8
  store ptr %1, ptr %5, align 8
  store i64 %2, ptr %6, align 8
  %7 = load ptr, ptr %4, align 8
  %8 = ptrtoint ptr %7 to i64
  %9 = load ptr, ptr %5, align 8
  %10 = ptrtoint ptr %9 to i64
  %11 = sub i64 %8, %10
  %12 = load i64, ptr %6, align 8
  %13 = udiv i64 %11, %12
  ret i64 %13
}

; Function Attrs: mustprogress nounwind uwtable
define linkonce_odr hidden noundef i64 @_Z13pointer_deltaPKP12HeapWordImplS2_(ptr noundef %0, ptr noundef %1) #1 comdat {
  %3 = alloca ptr, align 8
  %4 = alloca ptr, align 8
  store ptr %0, ptr %3, align 8
  store ptr %1, ptr %4, align 8
  %5 = load ptr, ptr %3, align 8
  %6 = load ptr, ptr %4, align 8
  %7 = call noundef i64 @_Z13pointer_deltaPVKvS0_m(ptr noundef %5, ptr noundef %6, i64 noundef 8)
  ret i64 %7
}

; Function Attrs: mustprogress nounwind uwtable
define linkonce_odr hidden void @_ZN9MemRegionC2EPP12HeapWordImplS2_(ptr noundef nonnull align 8 dereferenceable(16) %0, ptr noundef %1, ptr noundef %2) unnamed_addr #1 comdat align 2 {
  %4 = alloca ptr, align 8
  %5 = alloca ptr, align 8
  %6 = alloca ptr, align 8
  store ptr %0, ptr %4, align 8
  store ptr %1, ptr %5, align 8
  store ptr %2, ptr %6, align 8
  %7 = load ptr, ptr %4, align 8
  %8 = getelementptr inbounds %class.MemRegion, ptr %7, i32 0, i32 0
  %9 = load ptr, ptr %5, align 8
  store ptr %9, ptr %8, align 8
  %10 = getelementptr inbounds %class.MemRegion, ptr %7, i32 0, i32 1
  %11 = load ptr, ptr %6, align 8
  %12 = load ptr, ptr %5, align 8
  %13 = call noundef i64 @_Z13pointer_deltaPKP12HeapWordImplS2_(ptr noundef %11, ptr noundef %12)
  store i64 %13, ptr %10, align 8
  ret void
}

; Function Attrs: mustprogress nounwind uwtable
define linkonce_odr hidden noundef i64 @_ZNK20ShenandoahHeapRegion5indexEv(ptr noundef nonnull align 8 dereferenceable(96) %0) #1 comdat align 2 {
  %2 = alloca ptr, align 8
  store ptr %0, ptr %2, align 8
  %3 = load ptr, ptr %2, align 8
  %4 = getelementptr inbounds %class.ShenandoahHeapRegion, ptr %3, i32 0, i32 0
  %5 = load i64, ptr %4, align 8
  ret i64 %5
}

; Function Attrs: mustprogress nounwind uwtable
define linkonce_odr hidden noundef ptr @_ZNK20ShenandoahHeapRegion6bottomEv(ptr noundef nonnull align 8 dereferenceable(96) %0) #1 comdat align 2 {
  %2 = alloca ptr, align 8
  store ptr %0, ptr %2, align 8
  %3 = load ptr, ptr %2, align 8
  %4 = getelementptr inbounds %class.ShenandoahHeapRegion, ptr %3, i32 0, i32 1
  %5 = load ptr, ptr %4, align 8
  ret ptr %5
}

; Function Attrs: mustprogress nounwind uwtable
define hidden void @_ZN24ShenandoahMarkingContext12clear_bitmapEP20ShenandoahHeapRegion(ptr noundef nonnull align 8 dereferenceable(208) %0, ptr noundef %1) #1 align 2 {
  %3 = alloca ptr, align 8
  %4 = alloca ptr, align 8
  %5 = alloca ptr, align 8
  %6 = alloca ptr, align 8
  %7 = alloca %class.MemRegion, align 8
  store ptr %0, ptr %3, align 8
  store ptr %1, ptr %4, align 8
  %8 = load ptr, ptr %3, align 8
  %9 = load ptr, ptr %4, align 8
  %10 = call noundef ptr @_ZNK20ShenandoahHeapRegion6bottomEv(ptr noundef nonnull align 8 dereferenceable(96) %9)
  store ptr %10, ptr %5, align 8
  %11 = getelementptr inbounds %class.ShenandoahMarkingContext, ptr %8, i32 0, i32 1
  %12 = load ptr, ptr %11, align 8
  %13 = load ptr, ptr %4, align 8
  %14 = call noundef i64 @_ZNK20ShenandoahHeapRegion5indexEv(ptr noundef nonnull align 8 dereferenceable(96) %13)
  %15 = getelementptr inbounds ptr, ptr %12, i64 %14
  %16 = load ptr, ptr %15, align 8
  store ptr %16, ptr %6, align 8
  %17 = load ptr, ptr %6, align 8
  %18 = load ptr, ptr %5, align 8
  %19 = icmp ugt ptr %17, %18
  br i1 %19, label %20, label %34

20:                                               ; preds = %2
  %21 = getelementptr inbounds %class.ShenandoahMarkingContext, ptr %8, i32 0, i32 0
  %22 = load ptr, ptr %5, align 8
  %23 = load ptr, ptr %6, align 8
  call void @_ZN9MemRegionC2EPP12HeapWordImplS2_(ptr noundef nonnull align 8 dereferenceable(16) %7, ptr noundef %22, ptr noundef %23)
  %24 = getelementptr inbounds { ptr, i64 }, ptr %7, i32 0, i32 0
  %25 = load ptr, ptr %24, align 8
  %26 = getelementptr inbounds { ptr, i64 }, ptr %7, i32 0, i32 1
  %27 = load i64, ptr %26, align 8
  call void @_ZN20ShenandoahMarkBitMap17clear_range_largeE9MemRegion(ptr noundef nonnull align 8 dereferenceable(40) %21, ptr %25, i64 %27)
  %28 = load ptr, ptr %5, align 8
  %29 = getelementptr inbounds %class.ShenandoahMarkingContext, ptr %8, i32 0, i32 1
  %30 = load ptr, ptr %29, align 8
  %31 = load ptr, ptr %4, align 8
  %32 = call noundef i64 @_ZNK20ShenandoahHeapRegion5indexEv(ptr noundef nonnull align 8 dereferenceable(96) %31)
  %33 = getelementptr inbounds ptr, ptr %30, i64 %32
  store ptr %28, ptr %33, align 8
  br label %34

34:                                               ; preds = %20, %2
  ret void
}