; Function Attrs: mustprogress nounwind uwtable
define hidden void @_ZN24ShenandoahMarkingContext12clear_bitmapEP20ShenandoahHeapRegion(ptr noundef nonnull align 8 dereferenceable(208) %0, ptr nocapture noundef readonly %1) local_unnamed_addr #0 align 2 {
  %3 = getelementptr inbounds i8, ptr %1, i64 8
  %4 = load ptr, ptr %3, align 8
  %5 = getelementptr inbounds i8, ptr %0, i64 40
  %6 = load ptr, ptr %5, align 8
  %7 = load i64, ptr %1, align 8
  %8 = getelementptr inbounds ptr, ptr %6, i64 %7
  %9 = load ptr, ptr %8, align 8
  %10 = icmp ugt ptr %9, %4
  br i1 %10, label %11, label %19

11:                                               ; preds = %2
  %12 = ptrtoint ptr %9 to i64
  %13 = ptrtoint ptr %4 to i64
  %14 = sub i64 %12, %13
  %15 = lshr i64 %14, 3
  tail call void @_ZN20ShenandoahMarkBitMap17clear_range_largeE9MemRegion(ptr noundef nonnull align 8 dereferenceable(40) %0, ptr %4, i64 %15) #5
  %16 = load ptr, ptr %5, align 8
  %17 = load i64, ptr %1, align 8
  %18 = getelementptr inbounds ptr, ptr %16, i64 %17
  store ptr %4, ptr %18, align 8
  br label %19

19:                                               ; preds = %11, %2
  ret void
}